target datalayout = "e-m:e-p270:32:32-p271:32:32-p272:64:64-i64:64-i128:128-f80:128-n8:16:32:64-S128"
target triple = "x86_64-pc-linux-gnu"

%"class.std::__cxx11::basic_string" = type { %"struct.std::__cxx11::basic_string<char>::_Alloc_hider", i64, %union.anon }
%"struct.std::__cxx11::basic_string<char>::_Alloc_hider" = type { ptr }
%union.anon = type { i64, [8 x i8] }
%class.anon = type { i8 }

@_ZN9benchmark21FLAGS_benchmark_colorB5cxx11E = global %"class.std::__cxx11::basic_string" zeroinitializer, align 8
@.str.30 = private unnamed_addr constant [5 x i8] c"auto\00", align 1
@_ZN9benchmark32FLAGS_benchmark_counters_tabularE = global i8 0, align 1

; Function Attrs: inlinehint mustprogress nounwind uwtable
define linkonce_odr noundef zeroext i1 @_ZSteqIcSt11char_traitsIcESaIcEEbRKNSt7__cxx1112basic_stringIT_T0_T1_EEPKS5_(ptr noundef nonnull align 8 dereferenceable(32) %0, ptr noundef %1) #9 comdat {
  %3 = alloca ptr, align 8
  %4 = alloca ptr, align 8
  store ptr %0, ptr %3, align 8, !tbaa !13
  store ptr %1, ptr %4, align 8, !tbaa !15
  %5 = load ptr, ptr %3, align 8, !tbaa !13
  %6 = load ptr, ptr %4, align 8, !tbaa !15
  %7 = call noundef i32 @_ZNKSt7__cxx1112basic_stringIcSt11char_traitsIcESaIcEE7compareEPKc(ptr noundef nonnull align 8 dereferenceable(32) %5, ptr noundef %6) #4
  %8 = icmp eq i32 %7, 0
  ret i1 %8
}

; Function Attrs: inlinehint mustprogress uwtable
define internal noundef zeroext i1 @"_ZZN9benchmark8internal16GetOutputOptionsEbENK3$_0clEv"(ptr noundef nonnull align 1 dereferenceable(1) %0) #8 align 2 {
  %2 = alloca i1, align 1
  %3 = alloca ptr, align 8
  store ptr %0, ptr %3, align 8, !tbaa !21
  %4 = load ptr, ptr %3, align 8
  %5 = getelementptr inbounds nuw %class.anon, ptr %4, i32 0, i32 0
  %6 = load i8, ptr %5, align 1, !tbaa !153, !range !124, !noundef !125
  %7 = trunc i8 %6 to i1
  br i1 %7, label %8, label %9

8:                                                ; preds = %1
  store i1 false, ptr %2, align 1
  br label %15

9:                                                ; preds = %1
  %10 = call noundef zeroext i1 @_ZSteqIcSt11char_traitsIcESaIcEEbRKNSt7__cxx1112basic_stringIT_T0_T1_EEPKS5_(ptr noundef nonnull align 8 dereferenceable(32) @_ZN9benchmark21FLAGS_benchmark_colorB5cxx11E, ptr noundef @.str.30)
  br i1 %10, label %11, label %13

11:                                               ; preds = %9
  %12 = call noundef zeroext i1 @_ZN9benchmark15IsColorTerminalEv()
  store i1 %12, ptr %2, align 1
  br label %15

13:                                               ; preds = %9
  %14 = call noundef zeroext i1 @_ZN9benchmark17IsTruthyFlagValueERKNSt7__cxx1112basic_stringIcSt11char_traitsIcESaIcEEE(ptr noundef nonnull align 8 dereferenceable(32) @_ZN9benchmark21FLAGS_benchmark_colorB5cxx11E)
  store i1 %14, ptr %2, align 1
  br label %15

15:                                               ; preds = %13, %11, %8
  %16 = load i1, ptr %2, align 1
  ret i1 %16
}

; Function Attrs: mustprogress uwtable
define noundef i32 @_ZN9benchmark8internal16GetOutputOptionsEb(i1 noundef zeroext %0) #1 {
  %2 = alloca i8, align 1
  %3 = alloca i32, align 4
  %4 = alloca %class.anon, align 1
  %5 = zext i1 %0 to i8
  store i8 %5, ptr %2, align 1, !tbaa !8
  call void @llvm.lifetime.start.p0(i64 4, ptr %3) #4
  store i32 3, ptr %3, align 4, !tbaa !3
  call void @llvm.lifetime.start.p0(i64 1, ptr %4) #4
  %6 = getelementptr inbounds nuw %class.anon, ptr %4, i32 0, i32 0
  %7 = load i8, ptr %2, align 1, !tbaa !8, !range !124, !noundef !125
  %8 = trunc i8 %7 to i1
  %9 = zext i1 %8 to i8
  store i8 %9, ptr %6, align 1, !tbaa !153
  %10 = call noundef zeroext i1 @"_ZZN9benchmark8internal16GetOutputOptionsEbENK3$_0clEv"(ptr noundef nonnull align 1 dereferenceable(1) %4)
  br i1 %10, label %11, label %14

11:                                               ; preds = %1
  %12 = load i32, ptr %3, align 4, !tbaa !3
  %13 = or i32 %12, 1
  store i32 %13, ptr %3, align 4, !tbaa !3
  br label %17

14:                                               ; preds = %1
  %15 = load i32, ptr %3, align 4, !tbaa !3
  %16 = and i32 %15, -2
  store i32 %16, ptr %3, align 4, !tbaa !3
  br label %17

17:                                               ; preds = %14, %11
  %18 = load i8, ptr @_ZN9benchmark32FLAGS_benchmark_counters_tabularE, align 1, !tbaa !8, !range !124, !noundef !125
  %19 = trunc i8 %18 to i1
  br i1 %19, label %20, label %23

20:                                               ; preds = %17
  %21 = load i32, ptr %3, align 4, !tbaa !3
  %22 = or i32 %21, 2
  store i32 %22, ptr %3, align 4, !tbaa !3
  br label %26

23:                                               ; preds = %17
  %24 = load i32, ptr %3, align 4, !tbaa !3
  %25 = and i32 %24, -3
  store i32 %25, ptr %3, align 4, !tbaa !3
  br label %26

26:                                               ; preds = %23, %20
  %27 = load i32, ptr %3, align 4, !tbaa !3
  call void @llvm.lifetime.end.p0(i64 1, ptr %4) #4
  call void @llvm.lifetime.end.p0(i64 4, ptr %3) #4
  ret i32 %27
}