; Function Attrs: mustprogress uwtable
define noundef range(i32 0, 4) i32 @_ZN9benchmark8internal16GetOutputOptionsEb(i1 noundef zeroext %0) local_unnamed_addr #0 {
  br i1 %0, label %"_ZZN9benchmark8internal16GetOutputOptionsEbENK3$_0clEv.exit.thread", label %2

2:                                                ; preds = %1
  %3 = tail call noundef i32 @_ZNKSt7__cxx1112basic_stringIcSt11char_traitsIcESaIcEE7compareEPKc(ptr noundef nonnull align 8 dereferenceable(32) @_ZN9benchmark21FLAGS_benchmark_colorB5cxx11E, ptr noundef nonnull @.str.30) #32
  %4 = icmp eq i32 %3, 0
  br i1 %4, label %5, label %"_ZZN9benchmark8internal16GetOutputOptionsEbENK3$_0clEv.exit"

5:                                                ; preds = %2
  %6 = tail call noundef zeroext i1 @_ZN9benchmark15IsColorTerminalEv()
  br i1 %6, label %8, label %"_ZZN9benchmark8internal16GetOutputOptionsEbENK3$_0clEv.exit.thread"

"_ZZN9benchmark8internal16GetOutputOptionsEbENK3$_0clEv.exit": ; preds = %2
  %7 = tail call noundef zeroext i1 @_ZN9benchmark17IsTruthyFlagValueERKNSt7__cxx1112basic_stringIcSt11char_traitsIcESaIcEEE(ptr noundef nonnull align 8 dereferenceable(32) @_ZN9benchmark21FLAGS_benchmark_colorB5cxx11E)
  br i1 %7, label %8, label %"_ZZN9benchmark8internal16GetOutputOptionsEbENK3$_0clEv.exit.thread"

8:                                                ; preds = %5, %"_ZZN9benchmark8internal16GetOutputOptionsEbENK3$_0clEv.exit"
  br label %"_ZZN9benchmark8internal16GetOutputOptionsEbENK3$_0clEv.exit.thread"

"_ZZN9benchmark8internal16GetOutputOptionsEbENK3$_0clEv.exit.thread": ; preds = %1, %5, %"_ZZN9benchmark8internal16GetOutputOptionsEbENK3$_0clEv.exit", %8
  %9 = phi i32 [ 3, %8 ], [ 2, %"_ZZN9benchmark8internal16GetOutputOptionsEbENK3$_0clEv.exit" ], [ 2, %5 ], [ 2, %1 ]
  %10 = load i8, ptr @_ZN9benchmark32FLAGS_benchmark_counters_tabularE, align 1, !tbaa !134, !range !86, !noundef !87
  %11 = trunc nuw i8 %10 to i1
  %12 = and i32 %9, 1
  %.1 = select i1 %11, i32 %9, i32 %12
  ret i32 %.1
}